target datalayout = "e-m:e-p270:32:32-p271:32:32-p272:64:64-i64:64-i128:128-f80:128-n8:16:32:64-S128"
target triple = "x86_64-pc-linux-gnu"

%"class.llvm::SmallVectorBase" = type { ptr, i32, i32 }
%"class.clang::SourceLocation" = type { i32 }
%"class.clang::threadSafety::CapabilityExpr" = type { %"class.llvm::PointerIntPair.160", %"class.llvm::StringRef" }
%"class.llvm::PointerIntPair.160" = type { %"struct.llvm::detail::PunnedPointer.161" }
%"struct.llvm::detail::PunnedPointer.161" = type { [8 x i8] }
%"class.llvm::StringRef" = type { ptr, i64 }
%"class.std::__cxx11::basic_string" = type { %"struct.std::__cxx11::basic_string<char>::_Alloc_hider", i64, %union.anon }
%"struct.std::__cxx11::basic_string<char>::_Alloc_hider" = type { ptr }
%union.anon = type { i64, [8 x i8] }
%"class.(anonymous namespace)::FactEntry" = type { ptr, %"class.clang::threadSafety::CapabilityExpr", i16, %"class.clang::SourceLocation" }
%"struct.(anonymous namespace)::ScopedLockableFactEntry::UnderlyingCapability" = type <{ %"class.clang::threadSafety::CapabilityExpr", i32, [4 x i8] }>
%"class.(anonymous namespace)::ScopedLockableFactEntry" = type { %"class.(anonymous namespace)::FactEntry", %"class.llvm::SmallVector.1001" }
%"class.llvm::SmallVector.1001" = type { %"class.llvm::SmallVectorImpl.1002", %"struct.llvm::SmallVectorStorage.1005" }
%"class.llvm::SmallVectorImpl.1002" = type { %"class.llvm::SmallVectorTemplateBase.1003" }
%"class.llvm::SmallVectorTemplateBase.1003" = type { %"class.llvm::SmallVectorTemplateCommon.1004" }
%"class.llvm::SmallVectorTemplateCommon.1004" = type { %"class.llvm::SmallVectorBase" }
%"struct.llvm::SmallVectorStorage.1005" = type { [64 x i8] }

; Function Attrs: mustprogress nounwind uwtable
define internal i32 @_ZNK12_GLOBAL__N_19FactEntry3locEv(ptr noundef nonnull align 8 dereferenceable(40) %0) #0 align 2 {
  %2 = alloca %"class.clang::SourceLocation", align 4
  %3 = alloca ptr, align 8
  store ptr %0, ptr %3, align 8
  %4 = load ptr, ptr %3, align 8
  %5 = getelementptr inbounds nuw %"class.(anonymous namespace)::FactEntry", ptr %4, i32 0, i32 3
  call void @llvm.memcpy.p0.p0.i64(ptr align 4 %2, ptr align 4 %5, i64 4, i1 false)
  %6 = getelementptr inbounds nuw %"class.clang::SourceLocation", ptr %2, i32 0, i32 0
  %7 = load i32, ptr %6, align 4
  ret i32 %7
}

; Function Attrs: mustprogress nounwind uwtable
define linkonce_odr hidden void @_ZN4llvm9StringRefC2ERKNSt7__cxx1112basic_stringIcSt11char_traitsIcESaIcEEE(ptr noundef nonnull align 8 dereferenceable(16) %0, ptr noundef nonnull align 8 dereferenceable(32) %1) unnamed_addr #0 comdat align 2 {
  %3 = alloca ptr, align 8
  %4 = alloca ptr, align 8
  store ptr %0, ptr %3, align 8
  store ptr %1, ptr %4, align 8
  %5 = load ptr, ptr %3, align 8
  %6 = getelementptr inbounds nuw %"class.llvm::StringRef", ptr %5, i32 0, i32 0
  %7 = load ptr, ptr %4, align 8
  %8 = call noundef ptr @_ZNKSt7__cxx1112basic_stringIcSt11char_traitsIcESaIcEE4dataEv(ptr noundef nonnull align 8 dereferenceable(32) %7) #13
  store ptr %8, ptr %6, align 8
  %9 = getelementptr inbounds nuw %"class.llvm::StringRef", ptr %5, i32 0, i32 1
  %10 = load ptr, ptr %4, align 8
  %11 = call noundef i64 @_ZNKSt7__cxx1112basic_stringIcSt11char_traitsIcESaIcEE6lengthEv(ptr noundef nonnull align 8 dereferenceable(32) %10) #13
  store i64 %11, ptr %9, align 8
  ret void
}

; Function Attrs: mustprogress nounwind uwtable
define linkonce_odr hidden { ptr, i64 } @_ZNK5clang12threadSafety14CapabilityExpr7getKindEv(ptr noundef nonnull align 8 dereferenceable(24) %0) #0 comdat align 2 {
  %2 = alloca %"class.llvm::StringRef", align 8
  %3 = alloca ptr, align 8
  store ptr %0, ptr %3, align 8
  %4 = load ptr, ptr %3, align 8
  %5 = getelementptr inbounds nuw %"class.clang::threadSafety::CapabilityExpr", ptr %4, i32 0, i32 1
  call void @llvm.memcpy.p0.p0.i64(ptr align 8 %2, ptr align 8 %5, i64 16, i1 false)
  %6 = load { ptr, i64 }, ptr %2, align 8
  ret { ptr, i64 } %6
}

; Function Attrs: mustprogress nounwind uwtable
define internal noundef ptr @_ZNK4llvm25SmallVectorTemplateCommonIN12_GLOBAL__N_123ScopedLockableFactEntry20UnderlyingCapabilityEvE3endEv(ptr noundef nonnull align 8 dereferenceable(16) %0) #0 align 2 {
  %2 = alloca ptr, align 8
  store ptr %0, ptr %2, align 8
  %3 = load ptr, ptr %2, align 8
  %4 = call noundef ptr @_ZNK4llvm25SmallVectorTemplateCommonIN12_GLOBAL__N_123ScopedLockableFactEntry20UnderlyingCapabilityEvE5beginEv(ptr noundef nonnull align 8 dereferenceable(16) %3)
  %5 = call noundef i64 @_ZNK4llvm15SmallVectorBaseIjE4sizeEv(ptr noundef nonnull align 8 dereferenceable(16) %3)
  %6 = getelementptr inbounds %"struct.(anonymous namespace)::ScopedLockableFactEntry::UnderlyingCapability", ptr %4, i64 %5
  ret ptr %6
}

; Function Attrs: mustprogress nounwind uwtable
define internal noundef ptr @_ZNK4llvm25SmallVectorTemplateCommonIN12_GLOBAL__N_123ScopedLockableFactEntry20UnderlyingCapabilityEvE5beginEv(ptr noundef nonnull align 8 dereferenceable(16) %0) #0 align 2 {
  %2 = alloca ptr, align 8
  store ptr %0, ptr %2, align 8
  %3 = load ptr, ptr %2, align 8
  %4 = getelementptr inbounds nuw %"class.llvm::SmallVectorBase", ptr %3, i32 0, i32 0
  %5 = load ptr, ptr %4, align 8
  ret ptr %5
}

; Function Attrs: mustprogress nounwind uwtable
define internal void @_ZNK12_GLOBAL__N_123ScopedLockableFactEntry29handleRemovalFromIntersectionERKNS_7FactSetERNS_11FactManagerEN5clang14SourceLocationENS6_12threadSafety13LockErrorKindERNS8_19ThreadSafetyHandlerE(ptr noundef nonnull align 8 dereferenceable(120) %0, ptr noundef nonnull align 8 dereferenceable(32) %1, ptr noundef nonnull align 8 dereferenceable(24) %2, i32 %3, i32 noundef %4, ptr noundef nonnull align 8 dereferenceable(9) %5) unnamed_addr #0 align 2 {
  %7 = alloca %"class.clang::SourceLocation", align 4
  %8 = alloca ptr, align 8
  %9 = alloca ptr, align 8
  %10 = alloca ptr, align 8
  %11 = alloca i32, align 4
  %12 = alloca ptr, align 8
  %13 = alloca ptr, align 8
  %14 = alloca ptr, align 8
  %15 = alloca ptr, align 8
  %16 = alloca ptr, align 8
  %17 = alloca ptr, align 8
  %18 = alloca %"class.llvm::StringRef", align 8
  %19 = alloca %"class.llvm::StringRef", align 8
  %20 = alloca %"class.std::__cxx11::basic_string", align 8
  %21 = alloca %"class.clang::SourceLocation", align 4
  %22 = alloca %"class.clang::SourceLocation", align 4
  %23 = getelementptr inbounds nuw %"class.clang::SourceLocation", ptr %7, i32 0, i32 0
  store i32 %3, ptr %23, align 4
  store ptr %0, ptr %8, align 8
  store ptr %1, ptr %9, align 8
  store ptr %2, ptr %10, align 8
  store i32 %4, ptr %11, align 4
  store ptr %5, ptr %12, align 8
  %24 = load ptr, ptr %8, align 8
  %25 = getelementptr inbounds nuw %"class.(anonymous namespace)::ScopedLockableFactEntry", ptr %24, i32 0, i32 1
  store ptr %25, ptr %13, align 8
  %26 = load ptr, ptr %13, align 8
  %27 = call noundef ptr @_ZNK4llvm25SmallVectorTemplateCommonIN12_GLOBAL__N_123ScopedLockableFactEntry20UnderlyingCapabilityEvE5beginEv(ptr noundef nonnull align 8 dereferenceable(16) %26)
  store ptr %27, ptr %14, align 8
  %28 = load ptr, ptr %13, align 8
  %29 = call noundef ptr @_ZNK4llvm25SmallVectorTemplateCommonIN12_GLOBAL__N_123ScopedLockableFactEntry20UnderlyingCapabilityEvE3endEv(ptr noundef nonnull align 8 dereferenceable(16) %28)
  store ptr %29, ptr %15, align 8
  br label %30

30:                                               ; preds = %86, %6
  %31 = load ptr, ptr %14, align 8
  %32 = load ptr, ptr %15, align 8
  %33 = icmp ne ptr %31, %32
  br i1 %33, label %34, label %89

34:                                               ; preds = %30
  %35 = load ptr, ptr %14, align 8
  store ptr %35, ptr %16, align 8
  %36 = load ptr, ptr %9, align 8
  %37 = load ptr, ptr %10, align 8
  %38 = load ptr, ptr %16, align 8
  %39 = getelementptr inbounds nuw %"struct.(anonymous namespace)::ScopedLockableFactEntry::UnderlyingCapability", ptr %38, i32 0, i32 0
  %40 = call noundef ptr @_ZNK12_GLOBAL__N_17FactSet8findLockERNS_11FactManagerERKN5clang12threadSafety14CapabilityExprE(ptr noundef nonnull align 8 dereferenceable(32) %36, ptr noundef nonnull align 8 dereferenceable(24) %37, ptr noundef nonnull align 8 dereferenceable(24) %39)
  store ptr %40, ptr %17, align 8
  %41 = load ptr, ptr %16, align 8
  %42 = getelementptr inbounds nuw %"struct.(anonymous namespace)::ScopedLockableFactEntry::UnderlyingCapability", ptr %41, i32 0, i32 1
  %43 = load i32, ptr %42, align 8
  %44 = icmp eq i32 %43, 0
  br i1 %44, label %45, label %48

45:                                               ; preds = %34
  %46 = load ptr, ptr %17, align 8
  %47 = icmp ne ptr %46, null
  br i1 %47, label %56, label %48

48:                                               ; preds = %45, %34
  %49 = load ptr, ptr %16, align 8
  %50 = getelementptr inbounds nuw %"struct.(anonymous namespace)::ScopedLockableFactEntry::UnderlyingCapability", ptr %49, i32 0, i32 1
  %51 = load i32, ptr %50, align 8
  %52 = icmp ne i32 %51, 0
  br i1 %52, label %53, label %85

53:                                               ; preds = %48
  %54 = load ptr, ptr %17, align 8
  %55 = icmp ne ptr %54, null
  br i1 %55, label %85, label %56

56:                                               ; preds = %53, %45
  %57 = load ptr, ptr %12, align 8
  %58 = load ptr, ptr %16, align 8
  %59 = getelementptr inbounds nuw %"struct.(anonymous namespace)::ScopedLockableFactEntry::UnderlyingCapability", ptr %58, i32 0, i32 0
  %60 = call { ptr, i64 } @_ZNK5clang12threadSafety14CapabilityExpr7getKindEv(ptr noundef nonnull align 8 dereferenceable(24) %59)
  %61 = getelementptr inbounds nuw { ptr, i64 }, ptr %18, i32 0, i32 0
  %62 = extractvalue { ptr, i64 } %60, 0
  store ptr %62, ptr %61, align 8
  %63 = getelementptr inbounds nuw { ptr, i64 }, ptr %18, i32 0, i32 1
  %64 = extractvalue { ptr, i64 } %60, 1
  store i64 %64, ptr %63, align 8
  %65 = load ptr, ptr %16, align 8
  %66 = getelementptr inbounds nuw %"struct.(anonymous namespace)::ScopedLockableFactEntry::UnderlyingCapability", ptr %65, i32 0, i32 0
  call void @_ZNK5clang12threadSafety14CapabilityExpr8toStringB5cxx11Ev(ptr dead_on_unwind writable sret(%"class.std::__cxx11::basic_string") align 8 %20, ptr noundef nonnull align 8 dereferenceable(24) %66)
  call void @_ZN4llvm9StringRefC2ERKNSt7__cxx1112basic_stringIcSt11char_traitsIcESaIcEEE(ptr noundef nonnull align 8 dereferenceable(16) %19, ptr noundef nonnull align 8 dereferenceable(32) %20)
  %67 = call i32 @_ZNK12_GLOBAL__N_19FactEntry3locEv(ptr noundef nonnull align 8 dereferenceable(40) %24)
  %68 = getelementptr inbounds nuw %"class.clang::SourceLocation", ptr %21, i32 0, i32 0
  store i32 %67, ptr %68, align 4
  call void @llvm.memcpy.p0.p0.i64(ptr align 4 %22, ptr align 4 %7, i64 4, i1 false)
  %69 = load i32, ptr %11, align 4
  %70 = getelementptr inbounds nuw { ptr, i64 }, ptr %18, i32 0, i32 0
  %71 = load ptr, ptr %70, align 8
  %72 = getelementptr inbounds nuw { ptr, i64 }, ptr %18, i32 0, i32 1
  %73 = load i64, ptr %72, align 8
  %74 = getelementptr inbounds nuw { ptr, i64 }, ptr %19, i32 0, i32 0
  %75 = load ptr, ptr %74, align 8
  %76 = getelementptr inbounds nuw { ptr, i64 }, ptr %19, i32 0, i32 1
  %77 = load i64, ptr %76, align 8
  %78 = getelementptr inbounds nuw %"class.clang::SourceLocation", ptr %21, i32 0, i32 0
  %79 = load i32, ptr %78, align 4
  %80 = getelementptr inbounds nuw %"class.clang::SourceLocation", ptr %22, i32 0, i32 0
  %81 = load i32, ptr %80, align 4
  %82 = load ptr, ptr %57, align 8
  %83 = getelementptr inbounds ptr, ptr %82, i64 6
  %84 = load ptr, ptr %83, align 8
  call void %84(ptr noundef nonnull align 8 dereferenceable(9) %57, ptr %71, i64 %73, ptr %75, i64 %77, i32 %79, i32 %81, i32 noundef %69)
  call void @_ZNSt7__cxx1112basic_stringIcSt11char_traitsIcESaIcEED1Ev(ptr noundef nonnull align 8 dereferenceable(32) %20) #13
  br label %85

85:                                               ; preds = %56, %53, %48
  br label %86

86:                                               ; preds = %85
  %87 = load ptr, ptr %14, align 8
  %88 = getelementptr inbounds %"struct.(anonymous namespace)::ScopedLockableFactEntry::UnderlyingCapability", ptr %87, i32 1
  store ptr %88, ptr %14, align 8
  br label %30

89:                                               ; preds = %30
  ret void
}