; Function Attrs: mustprogress nounwind uwtable
define internal void @_ZNK12_GLOBAL__N_123ScopedLockableFactEntry29handleRemovalFromIntersectionERKNS_7FactSetERNS_11FactManagerEN5clang14SourceLocationENS6_12threadSafety13LockErrorKindERNS8_19ThreadSafetyHandlerE(ptr noundef nonnull align 8 dereferenceable(120) %0, ptr noundef nonnull align 8 dereferenceable(32) %1, ptr noundef nonnull readonly align 8 captures(none) dereferenceable(24) %2, i32 %3, i32 noundef %4, ptr noundef nonnull align 8 dereferenceable(9) %5) unnamed_addr #1 align 2 {
  %7 = alloca %"class.std::__cxx11::basic_string", align 8
  %8 = getelementptr inbounds nuw i8, ptr %0, i64 40
  %.val24 = load ptr, ptr %8, align 8
  %9 = tail call noundef i64 @_ZNK4llvm15SmallVectorBaseIjE4sizeEv(ptr noundef nonnull align 8 dereferenceable(16) %8) #18
  %10 = getelementptr inbounds %"struct.(anonymous namespace)::ScopedLockableFactEntry::UnderlyingCapability", ptr %.val24, i64 %9
  %.not25 = icmp eq i64 %9, 0
  br i1 %.not25, label %._crit_edge, label %.lr.ph

.lr.ph:                                           ; preds = %6
  %11 = getelementptr inbounds nuw i8, ptr %0, i64 36
  br label %12

12:                                               ; preds = %.lr.ph, %25
  %.026 = phi ptr [ %.val24, %.lr.ph ], [ %26, %25 ]
  %13 = call fastcc noundef ptr @_ZNK12_GLOBAL__N_17FactSet8findLockERNS_11FactManagerERKN5clang12threadSafety14CapabilityExprE(ptr noundef nonnull align 8 dereferenceable(32) %1, ptr noundef nonnull align 8 dereferenceable(24) %2, ptr noundef nonnull align 8 dereferenceable(24) %.026)
  %14 = getelementptr inbounds nuw i8, ptr %.026, i64 24
  %15 = load i32, ptr %14, align 8
  %16 = icmp eq i32 %15, 0
  %17 = icmp ne ptr %13, null
  %or.cond23 = xor i1 %17, %16
  br i1 %or.cond23, label %25, label %18

18:                                               ; preds = %12
  %19 = getelementptr inbounds nuw i8, ptr %.026, i64 8
  %.sroa.0.0.copyload.i = load ptr, ptr %19, align 8
  %.sroa.2.0..sroa_idx.i = getelementptr inbounds nuw i8, ptr %.026, i64 16
  %.sroa.2.0.copyload.i = load i64, ptr %.sroa.2.0..sroa_idx.i, align 8
  call void @_ZNK5clang12threadSafety14CapabilityExpr8toStringB5cxx11Ev(ptr dead_on_unwind nonnull writable sret(%"class.std::__cxx11::basic_string") align 8 %7, ptr noundef nonnull align 8 dereferenceable(24) %.026)
  %20 = call noundef ptr @_ZNKSt7__cxx1112basic_stringIcSt11char_traitsIcESaIcEE4dataEv(ptr noundef nonnull align 8 dereferenceable(32) %7) #18
  %21 = call noundef i64 @_ZNKSt7__cxx1112basic_stringIcSt11char_traitsIcESaIcEE6lengthEv(ptr noundef nonnull align 8 dereferenceable(32) %7) #18
  %.val = load i32, ptr %11, align 4
  %22 = load ptr, ptr %5, align 8
  %23 = getelementptr inbounds nuw i8, ptr %22, i64 48
  %24 = load ptr, ptr %23, align 8
  call void %24(ptr noundef nonnull align 8 dereferenceable(9) %5, ptr %.sroa.0.0.copyload.i, i64 %.sroa.2.0.copyload.i, ptr %20, i64 %21, i32 %.val, i32 %3, i32 noundef %4) #18
  call void @_ZNSt7__cxx1112basic_stringIcSt11char_traitsIcESaIcEED1Ev(ptr noundef nonnull align 8 dereferenceable(32) %7) #18
  br label %25

25:                                               ; preds = %12, %18
  %26 = getelementptr inbounds nuw i8, ptr %.026, i64 32
  %.not = icmp eq ptr %26, %10
  br i1 %.not, label %._crit_edge, label %12

._crit_edge:                                      ; preds = %25, %6
  ret void
}